target datalayout = "e-m:e-p270:32:32-p271:32:32-p272:64:64-i64:64-i128:128-f80:128-n8:16:32:64-S128"
target triple = "x86_64-pc-linux-gnu"

%struct.RData = type { %struct.RBasic, ptr, ptr, ptr }
%struct.RBasic = type { i64, i64 }

@.str.98 = private unnamed_addr constant [26 x i8] c"#<InternalObject:%p %li\0B>\00", align 1

; Function Attrs: inlinehint nounwind sspstrong willreturn memory(read) uwtable
define internal i32 @RB_BUILTIN_TYPE(i64 noundef %0) #9 {
  %2 = alloca i64, align 8
  %3 = alloca i64, align 8
  store i64 %0, ptr %2, align 8, !tbaa !6
  call void @llvm.lifetime.start.p0(i64 8, ptr %3) #15
  %4 = load i64, ptr %2, align 8, !tbaa !6
  %5 = inttoptr i64 %4 to ptr
  %6 = getelementptr inbounds nuw %struct.RBasic, ptr %5, i32 0, i32 0
  %7 = load i64, ptr %6, align 8, !tbaa !53
  %8 = and i64 %7, 31
  store i64 %8, ptr %3, align 8, !tbaa !6
  %9 = load i64, ptr %3, align 8, !tbaa !6
  %10 = trunc i64 %9 to i32
  call void @llvm.lifetime.end.p0(i64 8, ptr %3) #15
  ret i32 %10
}

; Function Attrs: nounwind sspstrong uwtable
define internal i64 @iow_inspect(i64 noundef %0) #0 {
  %2 = alloca i64, align 8
  %3 = alloca i64, align 8
  %4 = alloca i64, align 8
  store i64 %0, ptr %2, align 8, !tbaa !6
  call void @llvm.lifetime.start.p0(i64 8, ptr %3) #15
  %5 = load i64, ptr %2, align 8, !tbaa !6
  %6 = inttoptr i64 %5 to ptr
  %7 = getelementptr inbounds nuw %struct.RData, ptr %6, i32 0, i32 3
  %8 = load ptr, ptr %7, align 8, !tbaa !23
  %9 = ptrtoint ptr %8 to i64
  store i64 %9, ptr %3, align 8, !tbaa !6
  call void @llvm.lifetime.start.p0(i64 8, ptr %4) #15
  %10 = load i64, ptr %3, align 8, !tbaa !6
  %11 = call i32 @RB_BUILTIN_TYPE(i64 noundef %10) #17
  %12 = call i64 @type2sym(i32 noundef %11)
  store i64 %12, ptr %4, align 8, !tbaa !6
  %13 = load i64, ptr %3, align 8, !tbaa !6
  %14 = inttoptr i64 %13 to ptr
  %15 = load i64, ptr %4, align 8, !tbaa !6
  %16 = call i64 @rb_sym2str(i64 noundef %15)
  %17 = call i64 (ptr, ...) @rb_sprintf(ptr noundef @.str.98, ptr noundef %14, i64 noundef %16)
  call void @llvm.lifetime.end.p0(i64 8, ptr %4) #15
  call void @llvm.lifetime.end.p0(i64 8, ptr %3) #15
  ret i64 %17
}